; Function Attrs: nounwind uwtable
define dso_local range(i64 0, 2) i64 @elem_contained_by_range(ptr noundef readonly captures(none) %0) local_unnamed_addr #0 {
  %2 = alloca %struct.RangeBound, align 8
  %3 = alloca %struct.RangeBound, align 8
  %4 = alloca i8, align 1
  %5 = getelementptr inbounds nuw i8, ptr %0, i64 32
  %6 = load i64, ptr %5, align 8
  %7 = getelementptr inbounds nuw i8, ptr %0, i64 48
  %8 = load i64, ptr %7, align 8
  %9 = inttoptr i64 %8 to ptr
  %10 = tail call ptr @pg_detoast_datum(ptr noundef %9) #14
  %11 = getelementptr inbounds nuw i8, ptr %10, i64 4
  %12 = load i32, ptr %11, align 4
  %13 = load ptr, ptr %0, align 8
  %14 = getelementptr inbounds nuw i8, ptr %13, i64 24
  %15 = load ptr, ptr %14, align 8
  %16 = icmp eq ptr %15, null
  br i1 %16, label %19, label %17

17:                                               ; preds = %1
  %18 = load i32, ptr %15, align 8
  %.not.i = icmp eq i32 %18, %12
  br i1 %.not.i, label %range_get_typcache.exit, label %19

19:                                               ; preds = %17, %1
  %20 = tail call ptr @lookup_type_cache(i32 noundef %12, i32 noundef 2048) #14
  %21 = getelementptr inbounds nuw i8, ptr %20, i64 280
  %22 = load ptr, ptr %21, align 8
  %23 = icmp eq ptr %22, null
  br i1 %23, label %24, label %27

24:                                               ; preds = %19
  %25 = tail call zeroext i1 @errstart_cold(i32 noundef 21, ptr noundef null) #16
  tail call void @llvm.assume(i1 %25)
  %26 = tail call i32 (ptr, ...) @errmsg_internal(ptr noundef nonnull @.str.12, i32 noundef %12) #14
  tail call void @errfinish(ptr noundef nonnull @.str.1, i32 noundef 1712, ptr noundef nonnull @__func__.range_get_typcache) #14
  unreachable

27:                                               ; preds = %19
  %28 = load ptr, ptr %0, align 8
  %29 = getelementptr inbounds nuw i8, ptr %28, i64 24
  store ptr %20, ptr %29, align 8
  br label %range_get_typcache.exit

range_get_typcache.exit:                          ; preds = %17, %27
  %.0.i = phi ptr [ %20, %27 ], [ %15, %17 ]
  call void @llvm.lifetime.start.p0(i64 16, ptr nonnull %2) #14
  call void @llvm.lifetime.start.p0(i64 16, ptr nonnull %3) #14
  call void @llvm.lifetime.start.p0(i64 1, ptr nonnull %4) #14
  call void @range_deserialize(ptr noundef nonnull %.0.i, ptr noundef nonnull %10, ptr noundef nonnull %2, ptr noundef nonnull %3, ptr noundef nonnull %4)
  %30 = load i8, ptr %4, align 1, !range !7, !noundef !8
  %31 = trunc nuw i8 %30 to i1
  br i1 %31, label %range_contains_elem_internal.exit, label %32

32:                                               ; preds = %range_get_typcache.exit
  %33 = getelementptr inbounds nuw i8, ptr %2, i64 8
  %34 = load i8, ptr %33, align 8, !range !7, !noundef !8
  %35 = trunc nuw i8 %34 to i1
  br i1 %35, label %50, label %36

36:                                               ; preds = %32
  %37 = getelementptr inbounds nuw i8, ptr %.0.i, i64 296
  %38 = getelementptr inbounds nuw i8, ptr %.0.i, i64 292
  %39 = load i32, ptr %38, align 4
  %40 = load i64, ptr %2, align 8
  %41 = tail call i64 @FunctionCall2Coll(ptr noundef nonnull %37, i32 noundef %39, i64 noundef %40, i64 noundef %6) #14
  %42 = trunc i64 %41 to i32
  %43 = icmp sgt i32 %42, 0
  br i1 %43, label %range_contains_elem_internal.exit, label %44

44:                                               ; preds = %36
  %45 = icmp eq i32 %42, 0
  br i1 %45, label %46, label %50

46:                                               ; preds = %44
  %47 = getelementptr inbounds nuw i8, ptr %2, i64 9
  %48 = load i8, ptr %47, align 1, !range !7, !noundef !8
  %49 = trunc nuw i8 %48 to i1
  br i1 %49, label %50, label %range_contains_elem_internal.exit

50:                                               ; preds = %46, %44, %32
  %51 = getelementptr inbounds nuw i8, ptr %3, i64 8
  %52 = load i8, ptr %51, align 8, !range !7, !noundef !8
  %53 = trunc nuw i8 %52 to i1
  br i1 %53, label %68, label %54

54:                                               ; preds = %50
  %55 = getelementptr inbounds nuw i8, ptr %.0.i, i64 296
  %56 = getelementptr inbounds nuw i8, ptr %.0.i, i64 292
  %57 = load i32, ptr %56, align 4
  %58 = load i64, ptr %3, align 8
  %59 = tail call i64 @FunctionCall2Coll(ptr noundef nonnull %55, i32 noundef %57, i64 noundef %58, i64 noundef %6) #14
  %60 = trunc i64 %59 to i32
  %61 = icmp slt i32 %60, 0
  br i1 %61, label %range_contains_elem_internal.exit, label %62

62:                                               ; preds = %54
  %63 = icmp eq i32 %60, 0
  br i1 %63, label %64, label %68

64:                                               ; preds = %62
  %65 = getelementptr inbounds nuw i8, ptr %3, i64 9
  %66 = load i8, ptr %65, align 1, !range !7, !noundef !8
  %67 = trunc nuw i8 %66 to i1
  br i1 %67, label %68, label %range_contains_elem_internal.exit

68:                                               ; preds = %64, %62, %50
  br label %range_contains_elem_internal.exit

range_contains_elem_internal.exit:                ; preds = %range_get_typcache.exit, %36, %46, %54, %64, %68
  %.0.i6 = phi i64 [ 1, %68 ], [ 0, %range_get_typcache.exit ], [ 0, %36 ], [ 0, %46 ], [ 0, %54 ], [ 0, %64 ]
  call void @llvm.lifetime.end.p0(i64 1, ptr nonnull %4) #14
  call void @llvm.lifetime.end.p0(i64 16, ptr nonnull %3) #14
  call void @llvm.lifetime.end.p0(i64 16, ptr nonnull %2) #14
  ret i64 %.0.i6
}